target datalayout = "e-m:e-p270:32:32-p271:32:32-p272:64:64-i64:64-i128:128-f80:128-n8:16:32:64-S128"
target triple = "x86_64-pc-linux-gnu"

%"struct.std::_Rb_tree_header" = type { %"struct.std::_Rb_tree_node_base", i64 }
%"struct.std::_Rb_tree_node_base" = type { i32, ptr, ptr, ptr }
%"struct.casadi::IpqpMemory" = type { %"struct.casadi::ConicMemory", ptr }
%"struct.casadi::ConicMemory" = type { %"struct.casadi::FunctionMemory", %"struct.casadi::casadi_qp_data" }
%"struct.casadi::FunctionMemory" = type { %"struct.casadi::ProtoFunctionMemory" }
%"struct.casadi::ProtoFunctionMemory" = type { %"class.std::map.50", ptr }
%"class.std::map.50" = type { %"class.std::_Rb_tree.51" }
%"class.std::_Rb_tree.51" = type { %"struct.std::_Rb_tree<std::__cxx11::basic_string<char>, std::pair<const std::__cxx11::basic_string<char>, casadi::FStats>, std::_Select1st<std::pair<const std::__cxx11::basic_string<char>, casadi::FStats>>, std::less<std::__cxx11::basic_string<char>>>::_Rb_tree_impl" }
%"struct.std::_Rb_tree<std::__cxx11::basic_string<char>, std::pair<const std::__cxx11::basic_string<char>, casadi::FStats>, std::_Select1st<std::pair<const std::__cxx11::basic_string<char>, casadi::FStats>>, std::less<std::__cxx11::basic_string<char>>>::_Rb_tree_impl" = type { [8 x i8], %"struct.std::_Rb_tree_header" }
%"struct.casadi::casadi_qp_data" = type { ptr, i32, i8, i64, ptr, ptr, ptr, ptr, ptr, ptr, ptr, ptr, ptr, ptr, ptr, ptr, ptr, ptr }

@.str.43 = private unnamed_addr constant [1 x i8] zeroinitializer, align 1

; Function Attrs: mustprogress uwtable
define noundef i32 @_ZNK6casadi4Ipqp8init_memEPv(ptr noundef nonnull align 8 dereferenceable(1704) %0, ptr noundef %1) unnamed_addr #6 align 2 {
  %3 = alloca i32, align 4
  %4 = alloca ptr, align 8
  %5 = alloca ptr, align 8
  %6 = alloca ptr, align 8
  store ptr %0, ptr %4, align 8, !tbaa !58
  store ptr %1, ptr %5, align 8, !tbaa !41
  %7 = load ptr, ptr %4, align 8
  %8 = load ptr, ptr %5, align 8, !tbaa !41
  %9 = call noundef i32 @_ZNK6casadi5Conic8init_memEPv(ptr noundef nonnull align 8 dereferenceable(1520) %7, ptr noundef %8)
  %10 = icmp ne i32 %9, 0
  br i1 %10, label %11, label %12

11:                                               ; preds = %2
  store i32 1, ptr %3, align 4
  br label %16

12:                                               ; preds = %2
  call void @llvm.lifetime.start.p0(i64 8, ptr %6) #3
  %13 = load ptr, ptr %5, align 8, !tbaa !41
  store ptr %13, ptr %6, align 8, !tbaa !193
  %14 = load ptr, ptr %6, align 8, !tbaa !193
  %15 = getelementptr inbounds nuw %"struct.casadi::IpqpMemory", ptr %14, i32 0, i32 1
  store ptr @.str.43, ptr %15, align 8, !tbaa !195
  store i32 0, ptr %3, align 4
  call void @llvm.lifetime.end.p0(i64 8, ptr %6) #3
  br label %16

16:                                               ; preds = %12, %11
  %17 = load i32, ptr %3, align 4
  ret i32 %17
}