; Function Attrs: mustprogress uwtable
define noundef range(i32 0, 2) i32 @_ZNK6casadi4Ipqp8init_memEPv(ptr noundef nonnull align 8 dereferenceable(1704) %0, ptr noundef %1) unnamed_addr #4 align 2 {
  %3 = tail call noundef i32 @_ZNK6casadi5Conic8init_memEPv(ptr noundef nonnull align 8 dereferenceable(1520) %0, ptr noundef %1)
  %.not = icmp eq i32 %3, 0
  br i1 %.not, label %4, label %6

4:                                                ; preds = %2
  %5 = getelementptr inbounds nuw i8, ptr %1, i64 192
  store ptr @.str.43, ptr %5, align 8, !tbaa !140
  br label %6

6:                                                ; preds = %2, %4
  %.0 = phi i32 [ 0, %4 ], [ 1, %2 ]
  ret i32 %.0
}